target datalayout = "e-m:e-p270:32:32-p271:32:32-p272:64:64-i64:64-i128:128-f80:128-n8:16:32:64-S128"
target triple = "x86_64-pc-linux-gnu"

@.str.1471 = private unnamed_addr constant [4 x i8] c"MMS\00", align 1
@.str.1472 = private unnamed_addr constant [4 x i8] c"mms\00", align 1
@proto_mms = internal global i32 0, align 4
@.str.1473 = private unnamed_addr constant [21 x i8] c"use_iec61850_mapping\00", align 1
@.str.1474 = private unnamed_addr constant [25 x i8] c"Dissect MMS as IEC-61850\00", align 1
@.str.1475 = private unnamed_addr constant [58 x i8] c"Enables or disables dissection as IEC-61850 on top of MMS\00", align 1
@use_iec61850_mapping = internal global i8 1, align 1

; Function Attrs: null_pointer_is_valid sspstrong uwtable
define hidden void @proto_register_mms() #0 {
  %1 = alloca ptr, align 8
  %2 = alloca ptr, align 8
  call void @llvm.lifetime.start.p0(i64 8, ptr %1) #8
  %3 = call i32 @proto_register_protocol(ptr noundef @.str.1471, ptr noundef @.str.1471, ptr noundef @.str.1472)
  store i32 %3, ptr @proto_mms, align 4
  %4 = load i32, ptr @proto_mms, align 4
  %5 = call ptr @register_dissector(ptr noundef @.str.1472, ptr noundef @dissect_mms, i32 noundef %4)
  %6 = load i32, ptr @proto_mms, align 4
  call void @proto_register_field_array(i32 noundef %6, ptr noundef @proto_register_mms.hf, i32 noundef 738)
  call void @proto_register_subtree_array(ptr noundef @proto_register_mms.ett, i32 noundef 222)
  %7 = load i32, ptr @proto_mms, align 4
  %8 = call ptr @expert_register_protocol(i32 noundef %7)
  store ptr %8, ptr %1, align 8
  %9 = load ptr, ptr %1, align 8
  call void @expert_register_field_array(ptr noundef %9, ptr noundef @proto_register_mms.ei, i32 noundef 3)
  call void @llvm.lifetime.start.p0(i64 8, ptr %2) #8
  %10 = load i32, ptr @proto_mms, align 4
  %11 = call ptr @prefs_register_protocol(i32 noundef %10, ptr noundef null)
  store ptr %11, ptr %2, align 8
  %12 = load ptr, ptr %2, align 8
  call void @prefs_register_bool_preference(ptr noundef %12, ptr noundef @.str.1473, ptr noundef @.str.1474, ptr noundef @.str.1475, ptr noundef @use_iec61850_mapping)
  call void @llvm.lifetime.end.p0(i64 8, ptr %2) #8
  call void @llvm.lifetime.end.p0(i64 8, ptr %1) #8
  ret void
}