; Function Attrs: null_pointer_is_valid sspstrong uwtable
define hidden void @proto_register_mms() local_unnamed_addr #0 {
  %1 = tail call i32 @proto_register_protocol(ptr noundef nonnull @.str.1471, ptr noundef nonnull @.str.1471, ptr noundef nonnull @.str.1472)
  store i32 %1, ptr @proto_mms, align 4
  %2 = tail call ptr @register_dissector(ptr noundef nonnull @.str.1472, ptr noundef nonnull @dissect_mms, i32 noundef %1)
  %3 = load i32, ptr @proto_mms, align 4
  tail call void @proto_register_field_array(i32 noundef %3, ptr noundef nonnull @proto_register_mms.hf, i32 noundef 738)
  tail call void @proto_register_subtree_array(ptr noundef nonnull @proto_register_mms.ett, i32 noundef 222)
  %4 = load i32, ptr @proto_mms, align 4
  %5 = tail call ptr @expert_register_protocol(i32 noundef %4)
  tail call void @expert_register_field_array(ptr noundef %5, ptr noundef nonnull @proto_register_mms.ei, i32 noundef 3)
  %6 = load i32, ptr @proto_mms, align 4
  %7 = tail call ptr @prefs_register_protocol(i32 noundef %6, ptr noundef null)
  tail call void @prefs_register_bool_preference(ptr noundef %7, ptr noundef nonnull @.str.1473, ptr noundef nonnull @.str.1474, ptr noundef nonnull @.str.1475, ptr noundef nonnull @use_iec61850_mapping)
  ret void
}